target datalayout = "e-m:e-p270:32:32-p271:32:32-p272:64:64-i64:64-i128:128-f80:128-n8:16:32:64-S128"
target triple = "x86_64-unknown-linux-gnu"

@_ZN6icu_7522MetaZoneIDsEnumerationC1Ev = unnamed_addr alias void (ptr), ptr @_ZN6icu_7522MetaZoneIDsEnumerationC2Ev
@_ZN6icu_7522MetaZoneIDsEnumerationC1ERKNS_7UVectorE = unnamed_addr alias void (ptr, ptr), ptr @_ZN6icu_7522MetaZoneIDsEnumerationC2ERKNS_7UVectorE

; Function Attrs: mustprogress nounwind uwtable
define internal noundef signext i8 @_ZL9U_FAILURE10UErrorCode(i32 noundef %code) #0 {
entry:
  %code.addr = alloca i32, align 4
  store i32 %code, ptr %code.addr, align 4
  %0 = load i32, ptr %code.addr, align 4
  %cmp = icmp sgt i32 %0, 0
  %conv = zext i1 %cmp to i8
  ret i8 %conv
}

; Function Attrs: mustprogress uwtable
define noundef ptr @_ZN6icu_7517TimeZoneNamesImpl24_getAvailableMetaZoneIDsER10UErrorCode(ptr noundef nonnull align 4 dereferenceable(4) %status) #1 align 2 personality ptr @__gxx_personality_v0 {
entry:
  %retval = alloca ptr, align 8
  %status.addr = alloca ptr, align 8
  %mzIDs = alloca ptr, align 8
  %saved-rvalue = alloca ptr, align 8
  %cleanup.cond = alloca i1, align 1
  %exn.slot = alloca ptr, align 8
  %ehselector.slot = alloca i32, align 4
  %saved-rvalue8 = alloca ptr, align 8
  %cleanup.cond9 = alloca i1, align 1
  store ptr %status, ptr %status.addr, align 8
  %0 = load ptr, ptr %status.addr, align 8
  %1 = load i32, ptr %0, align 4
  %call = call noundef signext i8 @_ZL9U_FAILURE10UErrorCode(i32 noundef %1)
  %tobool = icmp ne i8 %call, 0
  br i1 %tobool, label %if.then, label %if.end

if.then:                                          ; preds = %entry
  store ptr null, ptr %retval, align 8
  br label %return

if.end:                                           ; preds = %entry
  %call1 = call noundef ptr @_ZN6icu_758ZoneMeta23getAvailableMetazoneIDsEv()
  store ptr %call1, ptr %mzIDs, align 8
  %2 = load ptr, ptr %mzIDs, align 8
  %cmp = icmp eq ptr %2, null
  br i1 %cmp, label %if.then2, label %if.end4

if.then2:                                         ; preds = %if.end
  %call3 = call noundef ptr @_ZN6icu_757UMemorynwEm(i64 noundef 144) #10
  %new.isnull = icmp eq ptr %call3, null
  store i1 false, ptr %cleanup.cond, align 1
  br i1 %new.isnull, label %new.cont, label %new.notnull

new.notnull:                                      ; preds = %if.then2
  store ptr %call3, ptr %saved-rvalue, align 8
  store i1 true, ptr %cleanup.cond, align 1
  invoke void @_ZN6icu_7522MetaZoneIDsEnumerationC1Ev(ptr noundef nonnull align 8 dereferenceable(144) %call3)
          to label %invoke.cont unwind label %lpad

invoke.cont:                                      ; preds = %new.notnull
  br label %new.cont

new.cont:                                         ; preds = %invoke.cont, %if.then2
  %3 = phi ptr [ %call3, %invoke.cont ], [ null, %if.then2 ]
  store ptr %3, ptr %retval, align 8
  br label %return

lpad:                                             ; preds = %new.notnull
  %4 = landingpad { ptr, i32 }
          cleanup
  %5 = extractvalue { ptr, i32 } %4, 0
  store ptr %5, ptr %exn.slot, align 8
  %6 = extractvalue { ptr, i32 } %4, 1
  store i32 %6, ptr %ehselector.slot, align 4
  %cleanup.is_active = load i1, ptr %cleanup.cond, align 1
  br i1 %cleanup.is_active, label %cleanup.action, label %cleanup.done

cleanup.action:                                   ; preds = %lpad
  %7 = load ptr, ptr %saved-rvalue, align 8
  call void @_ZN6icu_757UMemorydlEPv(ptr noundef %7) #10
  br label %cleanup.done

cleanup.done:                                     ; preds = %cleanup.action, %lpad
  br label %eh.resume

if.end4:                                          ; preds = %if.end
  %call5 = call noundef ptr @_ZN6icu_757UMemorynwEm(i64 noundef 144) #10
  %new.isnull6 = icmp eq ptr %call5, null
  store i1 false, ptr %cleanup.cond9, align 1
  br i1 %new.isnull6, label %new.cont15, label %new.notnull7

new.notnull7:                                     ; preds = %if.end4
  store ptr %call5, ptr %saved-rvalue8, align 8
  store i1 true, ptr %cleanup.cond9, align 1
  %8 = load ptr, ptr %mzIDs, align 8
  invoke void @_ZN6icu_7522MetaZoneIDsEnumerationC1ERKNS_7UVectorE(ptr noundef nonnull align 8 dereferenceable(144) %call5, ptr noundef nonnull align 8 dereferenceable(40) %8)
          to label %invoke.cont11 unwind label %lpad10

invoke.cont11:                                    ; preds = %new.notnull7
  br label %new.cont15

new.cont15:                                       ; preds = %invoke.cont11, %if.end4
  %9 = phi ptr [ %call5, %invoke.cont11 ], [ null, %if.end4 ]
  store ptr %9, ptr %retval, align 8
  br label %return

lpad10:                                           ; preds = %new.notnull7
  %10 = landingpad { ptr, i32 }
          cleanup
  %11 = extractvalue { ptr, i32 } %10, 0
  store ptr %11, ptr %exn.slot, align 8
  %12 = extractvalue { ptr, i32 } %10, 1
  store i32 %12, ptr %ehselector.slot, align 4
  %cleanup.is_active12 = load i1, ptr %cleanup.cond9, align 1
  br i1 %cleanup.is_active12, label %cleanup.action13, label %cleanup.done14

cleanup.action13:                                 ; preds = %lpad10
  %13 = load ptr, ptr %saved-rvalue8, align 8
  call void @_ZN6icu_757UMemorydlEPv(ptr noundef %13) #10
  br label %cleanup.done14

cleanup.done14:                                   ; preds = %cleanup.action13, %lpad10
  br label %eh.resume

return:                                           ; preds = %new.cont15, %new.cont, %if.then
  %14 = load ptr, ptr %retval, align 8
  ret ptr %14

eh.resume:                                        ; preds = %cleanup.done14, %cleanup.done
  %exn = load ptr, ptr %exn.slot, align 8
  %sel = load i32, ptr %ehselector.slot, align 4
  %lpad.val = insertvalue { ptr, i32 } poison, ptr %exn, 0
  %lpad.val16 = insertvalue { ptr, i32 } %lpad.val, i32 %sel, 1
  resume { ptr, i32 } %lpad.val16
}

; Function Attrs: mustprogress uwtable
define noundef ptr @_ZNK6icu_7517TimeZoneNamesImpl23getAvailableMetaZoneIDsER10UErrorCode(ptr noundef nonnull align 8 dereferenceable(320) %this, ptr noundef nonnull align 4 dereferenceable(4) %status) unnamed_addr #1 align 2 {
entry:
  %this.addr = alloca ptr, align 8
  %status.addr = alloca ptr, align 8
  store ptr %this, ptr %this.addr, align 8
  store ptr %status, ptr %status.addr, align 8
  %0 = load ptr, ptr %status.addr, align 8
  %call = call noundef ptr @_ZN6icu_7517TimeZoneNamesImpl24_getAvailableMetaZoneIDsER10UErrorCode(ptr noundef nonnull align 4 dereferenceable(4) %0)
  ret ptr %call
}