; Function Attrs: mustprogress uwtable
define noundef ptr @_ZNK6icu_7517TimeZoneNamesImpl23getAvailableMetaZoneIDsER10UErrorCode(ptr nocapture nonnull readnone align 8 %this, ptr nocapture noundef nonnull readonly align 4 dereferenceable(4) %status) unnamed_addr #1 align 2 personality ptr @__gxx_personality_v0 {
entry:
  %0 = load i32, ptr %status, align 4
  %cmp.i.i = icmp slt i32 %0, 1
  br i1 %cmp.i.i, label %if.end.i, label %_ZN6icu_7517TimeZoneNamesImpl24_getAvailableMetaZoneIDsER10UErrorCode.exit

if.end.i:                                         ; preds = %entry
  %call1.i = tail call noundef ptr @_ZN6icu_758ZoneMeta23getAvailableMetazoneIDsEv()
  %cmp.i = icmp eq ptr %call1.i, null
  %call3.i = tail call noundef ptr @_ZN6icu_757UMemorynwEm(i64 noundef 144) #20
  %new.isnull.i = icmp eq ptr %call3.i, null
  br i1 %cmp.i, label %if.then2.i, label %if.end4.i

if.then2.i:                                       ; preds = %if.end.i
  br i1 %new.isnull.i, label %_ZN6icu_7517TimeZoneNamesImpl24_getAvailableMetaZoneIDsER10UErrorCode.exit, label %new.notnull.i

new.notnull.i:                                    ; preds = %if.then2.i
  invoke void @_ZN6icu_7522MetaZoneIDsEnumerationC1Ev(ptr noundef nonnull align 8 dereferenceable(144) %call3.i)
          to label %_ZN6icu_7517TimeZoneNamesImpl24_getAvailableMetaZoneIDsER10UErrorCode.exit unwind label %lpad.i

lpad.i:                                           ; preds = %new.notnull.i
  %1 = landingpad { ptr, i32 }
          cleanup
  br label %eh.resume.i

if.end4.i:                                        ; preds = %if.end.i
  br i1 %new.isnull.i, label %_ZN6icu_7517TimeZoneNamesImpl24_getAvailableMetaZoneIDsER10UErrorCode.exit, label %new.notnull7.i

new.notnull7.i:                                   ; preds = %if.end4.i
  invoke void @_ZN6icu_7522MetaZoneIDsEnumerationC1ERKNS_7UVectorE(ptr noundef nonnull align 8 dereferenceable(144) %call3.i, ptr noundef nonnull align 8 dereferenceable(40) %call1.i)
          to label %_ZN6icu_7517TimeZoneNamesImpl24_getAvailableMetaZoneIDsER10UErrorCode.exit unwind label %lpad10.i

lpad10.i:                                         ; preds = %new.notnull7.i
  %2 = landingpad { ptr, i32 }
          cleanup
  br label %eh.resume.i

eh.resume.i:                                      ; preds = %lpad10.i, %lpad.i
  %.pn.i = phi { ptr, i32 } [ %1, %lpad.i ], [ %2, %lpad10.i ]
  tail call void @_ZN6icu_757UMemorydlEPv(ptr noundef nonnull %call3.i) #20
  resume { ptr, i32 } %.pn.i

_ZN6icu_7517TimeZoneNamesImpl24_getAvailableMetaZoneIDsER10UErrorCode.exit: ; preds = %entry, %if.then2.i, %new.notnull.i, %if.end4.i, %new.notnull7.i
  %retval.0.i = phi ptr [ null, %entry ], [ null, %if.then2.i ], [ %call3.i, %new.notnull.i ], [ null, %if.end4.i ], [ %call3.i, %new.notnull7.i ]
  ret ptr %retval.0.i
}